target datalayout = "e-m:e-p270:32:32-p271:32:32-p272:64:64-i64:64-i128:128-f80:128-n8:16:32:64-S128"
target triple = "x86_64-pc-linux-gnu"

%struct.llama_kv_cache_view = type { i32, i32, i32, i32, i32, i32, ptr, ptr }

; Function Attrs: mustprogress nounwind uwtable
define void @llama_kv_cache_view_free(ptr noundef %0) #3 {
  %2 = alloca ptr, align 8
  store ptr %0, ptr %2, align 8, !tbaa !239
  %3 = load ptr, ptr %2, align 8, !tbaa !239
  %4 = getelementptr inbounds nuw %struct.llama_kv_cache_view, ptr %3, i32 0, i32 6
  %5 = load ptr, ptr %4, align 8, !tbaa !237
  %6 = icmp ne ptr %5, null
  br i1 %6, label %7, label %13

7:                                                ; preds = %1
  %8 = load ptr, ptr %2, align 8, !tbaa !239
  %9 = getelementptr inbounds nuw %struct.llama_kv_cache_view, ptr %8, i32 0, i32 6
  %10 = load ptr, ptr %9, align 8, !tbaa !237
  call void @free(ptr noundef %10) #17
  %11 = load ptr, ptr %2, align 8, !tbaa !239
  %12 = getelementptr inbounds nuw %struct.llama_kv_cache_view, ptr %11, i32 0, i32 6
  store ptr null, ptr %12, align 8, !tbaa !237
  br label %13

13:                                               ; preds = %7, %1
  %14 = load ptr, ptr %2, align 8, !tbaa !239
  %15 = getelementptr inbounds nuw %struct.llama_kv_cache_view, ptr %14, i32 0, i32 7
  %16 = load ptr, ptr %15, align 8, !tbaa !238
  %17 = icmp ne ptr %16, null
  br i1 %17, label %18, label %24

18:                                               ; preds = %13
  %19 = load ptr, ptr %2, align 8, !tbaa !239
  %20 = getelementptr inbounds nuw %struct.llama_kv_cache_view, ptr %19, i32 0, i32 7
  %21 = load ptr, ptr %20, align 8, !tbaa !238
  call void @free(ptr noundef %21) #17
  %22 = load ptr, ptr %2, align 8, !tbaa !239
  %23 = getelementptr inbounds nuw %struct.llama_kv_cache_view, ptr %22, i32 0, i32 7
  store ptr null, ptr %23, align 8, !tbaa !238
  br label %24

24:                                               ; preds = %18, %13
  ret void
}