; Function Attrs: mustprogress nounwind willreturn uwtable
define void @llama_kv_cache_view_free(ptr noundef captures(none) %0) local_unnamed_addr #10 {
  %2 = getelementptr inbounds nuw i8, ptr %0, i64 24
  %3 = load ptr, ptr %2, align 8, !tbaa !173
  %.not = icmp eq ptr %3, null
  br i1 %.not, label %5, label %4

4:                                                ; preds = %1
  tail call void @free(ptr noundef nonnull %3) #24
  store ptr null, ptr %2, align 8, !tbaa !173
  br label %5

5:                                                ; preds = %4, %1
  %6 = getelementptr inbounds nuw i8, ptr %0, i64 32
  %7 = load ptr, ptr %6, align 8, !tbaa !174
  %.not7 = icmp eq ptr %7, null
  br i1 %.not7, label %9, label %8

8:                                                ; preds = %5
  tail call void @free(ptr noundef nonnull %7) #24
  store ptr null, ptr %6, align 8, !tbaa !174
  br label %9

9:                                                ; preds = %8, %5
  ret void
}